; Function Attrs: mustprogress nofree nosync nounwind sspstrong willreturn memory(read, argmem: readwrite, inaccessiblemem: none) uwtable
define dso_local void @extract_ip_and_port(i32 noundef %tmp_ports, ptr noundef writeonly captures(none) initializes((0, 12)) %key, ptr noundef readonly captures(none) %pkt, i1 noundef zeroext %reverse) local_unnamed_addr #5 {
entry:
  %0 = getelementptr inbounds nuw i8, ptr %pkt, i64 8
  %1 = load ptr, ptr %0, align 8
  br i1 %reverse, label %if.then, label %if.else

if.then:                                          ; preds = %entry
  %ip_dst = getelementptr inbounds nuw i8, ptr %1, i64 16
  %2 = load i32, ptr %ip_dst, align 1
  store i32 %2, ptr %key, align 1
  %3 = load ptr, ptr %0, align 8
  %ip_src = getelementptr inbounds nuw i8, ptr %3, i64 12
  %conv = trunc i32 %tmp_ports to i16
  %call = tail call zeroext i16 @ntohs(i16 noundef zeroext %conv) #16
  %shr = lshr i32 %tmp_ports, 16
  br label %if.end

if.else:                                          ; preds = %entry
  %ip_src4 = getelementptr inbounds nuw i8, ptr %1, i64 12
  %4 = load i32, ptr %ip_src4, align 1
  store i32 %4, ptr %key, align 1
  %5 = load ptr, ptr %0, align 8
  %ip_dst6 = getelementptr inbounds nuw i8, ptr %5, i64 16
  %shr7 = lshr i32 %tmp_ports, 16
  %conv8 = trunc nuw i32 %shr7 to i16
  %call9 = tail call zeroext i16 @ntohs(i16 noundef zeroext %conv8) #16
  br label %if.end

if.end:                                           ; preds = %if.else, %if.then
  %tmp_ports.sink = phi i32 [ %tmp_ports, %if.else ], [ %shr, %if.then ]
  %.sink.in = phi ptr [ %ip_dst6, %if.else ], [ %ip_src, %if.then ]
  %call9.sink = phi i16 [ %call9, %if.else ], [ %call, %if.then ]
  %conv12 = trunc i32 %tmp_ports.sink to i16
  %call13 = tail call zeroext i16 @ntohs(i16 noundef zeroext %conv12) #16
  %.sink = load i32, ptr %.sink.in, align 1
  %6 = getelementptr inbounds nuw i8, ptr %key, i64 4
  store i32 %.sink, ptr %6, align 1
  %7 = getelementptr inbounds nuw i8, ptr %key, i64 8
  store i16 %call9.sink, ptr %7, align 1
  %8 = getelementptr inbounds nuw i8, ptr %key, i64 10
  store i16 %call13, ptr %8, align 1
  ret void
}